ccollections
defaultdict
p0
(c__builtin__
list
p1
tp2
Rp3
cnumpy.core.multiarray
scalar
p4
(cnumpy
dtype
p5
(S'i8'
p6
I0
I1
tp7
Rp8
(I3
S'<'
p9
NNNI-1
I-1
I0
tp10
bS'\x00\x00\x00\x00\x00\x00\x00\x00'
p11
tp12
Rp13
VPeas, Thawed, Cooked, Green, Vegetables, Potatoes, Package, Pie, Carrots
p14
sg4
(g8
S'\x01\x00\x00\x00\x00\x00\x00\x00'
p15
tp16
Rp17
VRice, Soy, Ginger, Sugar, Seeds, Vinegar, Green, Peanut, Toasted
p18
sg4
(g8
S'\x02\x00\x00\x00\x00\x00\x00\x00'
p19
tp20
Rp21
VFennel, Salad, Style, Seeds, Italian, Ranch, Bulb, Beets, Mix
p22
sg4
(g8
S'\x03\x00\x00\x00\x00\x00\x00\x00'
p23
tp24
Rp25
VBay, Parsley, Wine, Thyme, Flat, Onions, Peppercorns, Stock, Lamb
p26
sg4
(g8
S'\x04\x00\x00\x00\x00\x00\x00\x00'
p27
tp28
Rp29
VSpray, Old, Oats, Quick, Optional, Vegetable, Seasoning, Crab, Crabmeat
p30
sg4
(g8
S'\x05\x00\x00\x00\x00\x00\x00\x00'
p31
tp32
Rp33
VBeer, Fluid, Beef, Bottle, Sirloin, Flank, Brown, Worcestershire, Soy
p34
sg4
(g8
S'\x06\x00\x00\x00\x00\x00\x00\x00'
p35
tp36
Rp37
VPackage, Parmesan, Penne, Linguine, Basil, Tomatoes, Fettuccine, Angel, Hair
p38
sg4
(g8
S'\x07\x00\x00\x00\x00\x00\x00\x00'
p39
tp40
Rp41
VTofu, Lemon, Firm, Package, Hot, Juiced, Soy, Vegetable, Dash
p42
sg4
(g8
S'\x08\x00\x00\x00\x00\x00\x00\x00'
p43
tp44
Rp45
VGinger, Green, Cornstarch, Root, Onions, Sesame, Sugar, Vegetable, Rice
p46
sg4
(g8
S'\t\x00\x00\x00\x00\x00\x00\x00'
p47
tp48
Rp49
VItalian, Seasoning, Smoked, Sweet, Links, Kielbasa, Chorizo, Style, Pork
p50
sg4
(g8
S'\n\x00\x00\x00\x00\x00\x00\x00'
p51
tp52
Rp53
VSugar, Vinegar, Ketchup, Mustard, Worcestershire, Prepared, Chili, Distilled, Hot
p54
sg4
(g8
S'\x0b\x00\x00\x00\x00\x00\x00\x00'
p55
tp56
Rp57
VPurpose, Eggs, Cooked, Needed, Egg, Milk, Meat, Vegetable, Hard
p58
sg4
(g8
S'\x0c\x00\x00\x00\x00\x00\x00\x00'
p59
tp60
Rp61
VDijon, Honey, Prepared, Vinegar, Wine, Horseradish, Vegetable, Glazed, Eye
p62
sg4
(g8
S'\r\x00\x00\x00\x00\x00\x00\x00'
p63
tp64
Rp65
VDeveined, Lemon, Cajun, Parsley, Lobster, Cooked, Seasoning, Tails, Hot
p66
sg4
(g8
S'\x0e\x00\x00\x00\x00\x00\x00\x00'
p67
tp68
Rp69
VSteaks, Chunks, Steak, Seasoning, Sweet, Grilled, Vinegar, Rings, Vegetable
p70
sg4
(g8
S'\x0f\x00\x00\x00\x00\x00\x00\x00'
p71
tp72
Rp73
VCurry, Milk, Ginger, Lime, Sugar, Fish, Paste, Thai, Unsweetened
p74
sg4
(g8
S'\x10\x00\x00\x00\x00\x00\x00\x00'
p75
tp76
Rp77
VChocolate, Vanilla, Extract, Unsalted, Unsweetened, Cocoa, Egg, Light, Granulated
p78
sg4
(g8
S'\x11\x00\x00\x00\x00\x00\x00\x00'
p79
tp80
Rp81
VSyrup, Sugar, Venison, Brown, Optional, Pure, Light, Chips, Apple
p82
sg4
(g8
S'\x12\x00\x00\x00\x00\x00\x00\x00'
p83
tp84
Rp85
VFrozen, Thawed, Package, Pastry, Baby, Egg, Puff, Bag, Packages
p86
sg4
(g8
S'\x13\x00\x00\x00\x00\x00\x00\x00'
p87
tp88
Rp89
VRoast, Liquid, Boneless, Shoulder, Loin, Barbeque, Smoke, Flavoring, Pulled
p90
sg4
(g8
S'\x14\x00\x00\x00\x00\x00\x00\x00'
p91
tp92
Rp93
VTomato, Oregano, Basil, Parsley, Flakes, Cans, Pasta, Wine, Clams
p94
sg4
(g8
S'\x15\x00\x00\x00\x00\x00\x00\x00'
p95
tp96
Rp97
VCorn, Rinsed, Taco, Green, Chili, Bean, Beef, Package, Mix
p98
sg4
(g8
S'\x16\x00\x00\x00\x00\x00\x00\x00'
p99
tp100
Rp101
VUncooked, Grain, Long, Broth, Wild, Cooked, Vegetable, Saffron, Instant
p102
sg4
(g8
S'\x17\x00\x00\x00\x00\x00\x00\x00'
p103
tp104
Rp105
VThighs, Skin, Sage, Bone, Stuffing, Duck, Leg, Legs, Optional
p106
sg4
(g8
S'\x18\x00\x00\x00\x00\x00\x00\x00'
p107
tp108
Rp109
VFree, Milk, Purpose, Eggs, Fat, Blend, Seasoning, Egg, Parmesan
p110
sg4
(g8
S'\x19\x00\x00\x00\x00\x00\x00\x00'
p111
tp112
Rp113
VCheddar, Milk, Cans, Easy, Casserole, Melted, Package, Cooked, Margarine
p114
sg4
(g8
S'\x1a\x00\x00\x00\x00\x00\x00\x00'
p115
tp116
Rp117
VChops, Tenderloin, Boneless, Loin, Wine, Soy, Bone, Tenderloins, Center
p118
sg4
(g8
S'\x1b\x00\x00\x00\x00\x00\x00\x00'
p119
tp120
Rp121
VMushrooms, Mushroom, Portobello, Wine, Onions, Button, Stock, Thyme, Stuffed
p122
sg4
(g8
S'\x1c\x00\x00\x00\x00\x00\x00\x00'
p123
tp124
Rp125
VJack, Tortillas, Monterey, Flour, Cream, Cheddar, Sour, Peppers, Chile
p126
sg4
(g8
S'\x1d\x00\x00\x00\x00\x00\x00\x00'
p127
tp128
Rp129
VBread, Cooked, Swiss, Sandwich, Mayonnaise, French, Grilled, Softened, Bacon
p130
sg4
(g8
S'\x1e\x00\x00\x00\x00\x00\x00\x00'
p131
tp132
Rp133
VCrumbs, Beef, Egg, Eggs, Meatloaf, Seasoned, Lean, Italian, Milk
p134
sg4
(g8
S'\x1f\x00\x00\x00\x00\x00\x00\x00'
p135
tp136
Rp137
VHeavy, Sour, Whipping, Egg, Softened, Unsalted, Yolks, Milk, Whipped
p138
sg4
(g8
S' \x00\x00\x00\x00\x00\x00\x00'
p139
tp140
Rp141
VVirgin, Roasted, Sea, Pecorino, Pancetta, Parmesan, Toasted, Arugula, Bread
p142
sg4
(g8
S'!\x00\x00\x00\x00\x00\x00\x00'
p143
tp144
Rp145
VGreens, Kale, Vinegar, Bunches, Salad, Unsalted, Baby, Cr, Che
p146
sg4
(g8
S'"\x00\x00\x00\x00\x00\x00\x00'
p147
tp148
Rp149
VSplit, Buns, Hamburger, Beef, Rolls, Burgers, Mayonnaise, Tomato, Worcestershire
p150
sg4
(g8
S'#\x00\x00\x00\x00\x00\x00\x00'
p151
tp152
Rp153
VGreen, Peppers, Tomato, Stuffed, Optional, Yellow, Oregano, Olives, Pimento
p154
sg4
(g8
S'$\x00\x00\x00\x00\x00\x00\x00'
p155
tp156
Rp157
VIce, Peach, Vanilla, Lemon, Strawberries, Syrup, Peaches, Raspberry, Pitted
p158
sg4
(g8
S'%\x00\x00\x00\x00\x00\x00\x00'
p159
tp160
Rp161
VFat, Sodium, Broth, Reduced, Free, Dice, Wheat, Rinsed, Vegetable
p162
sg4
(g8
S'&\x00\x00\x00\x00\x00\x00\x00'
p163
tp164
Rp165
VFlour, Bouillon, Purpose, Steak, Vegetable, Cube, Mushrooms, Hot, Catfish
p166
sg4
(g8
S"'\x00\x00\x00\x00\x00\x00\x00"
p167
tp168
Rp169
VSkinless, Breast, Halves, Breasts, Pounded, Cranberry, Thickness, Mushrooms, Chunks
p170
sg4
(g8
S'(\x00\x00\x00\x00\x00\x00\x00'
p171
tp172
Rp173
VFillets, Lemon, Dill, Fish, Halibut, Cod, Weed, Fillet, Mayonnaise
p174
sg4
(g8
S')\x00\x00\x00\x00\x00\x00\x00'
p175
tp176
Rp177
VWine, Flat, Extra, Vinegar, Virgin, Leaf, Lemon, Tarragon, Sherry
p178
sg4
(g8
S'*\x00\x00\x00\x00\x00\x00\x00'
p179
tp180
Rp181
VThyme, Sprigs, Wine, Sprig, Lamb, Broth, Shallots, Roasted, Basil
p182
sg4
(g8
S'+\x00\x00\x00\x00\x00\x00\x00'
p183
tp184
Rp185
VPie, Crust, Mozzarella, Grams, Dough, Refrigerated, Package, Eggs, Quiche
p186
sg4
(g8
S',\x00\x00\x00\x00\x00\x00\x00'
p187
tp188
Rp189
VCored, Cider, Vinegar, Sugar, Apples, Brown, Cinnamon, Pear, Sauerkraut
p190
sg4
(g8
S'-\x00\x00\x00\x00\x00\x00\x00'
p191
tp192
Rp193
VLemon, Zest, Sea, Peel, Honey, Reggiano, Parmigiano, Oranges, Citrus
p194
sg4
(g8
S'.\x00\x00\x00\x00\x00\x00\x00'
p195
tp196
Rp197
VCrumbs, Parmesan, Egg, Seasoned, Tilapia, Parsley, Panko, Melted, Fillets
p198
sg4
(g8
S'/\x00\x00\x00\x00\x00\x00\x00'
p199
tp200
Rp201
VGinger, Curry, Turmeric, Seeds, Coriander, Cilantro, Vegetable, Masala, Paste
p202
sg4
(g8
S'0\x00\x00\x00\x00\x00\x00\x00'
p203
tp204
Rp205
VAsparagus, Artichoke, Zest, Wine, Juiced, Hearts, Mahi, Parsley, Fillets
p206
sg4
(g8
S'1\x00\x00\x00\x00\x00\x00\x00'
p207
tp208
Rp209
VSlow, Cooker, Seasoning, Package, Soup, Beef, Envelope, Roast, Packet
p210
sg4
(g8
S'2\x00\x00\x00\x00\x00\x00\x00'
p211
tp212
Rp213
VPurpose, Sugar, Baking, Unsalted, Egg, Eggs, Extract, Vanilla, Soda
p214
sg4
(g8
S'3\x00\x00\x00\x00\x00\x00\x00'
p215
tp216
Rp217
VMacaroni, Milk, Package, Sharp, Elbow, Swiss, Purpose, Processed, Flour
p218
sg4
(g8
S'4\x00\x00\x00\x00\x00\x00\x00'
p219
tp220
Rp221
VSoup, Condensed, Mushroom, Package, Casserole, Cans, Sour, Cooked, Cheddar
p222
sg4
(g8
S'5\x00\x00\x00\x00\x00\x00\x00'
p223
tp224
Rp225
VGreek, Lemon, Mint, Feta, Lamb, Cucumber, Pomegranate, Pita, Rounds
p226
sg4
(g8
S'6\x00\x00\x00\x00\x00\x00\x00'
p227
tp228
Rp229
VBrown, Cinnamon, Pumpkin, Ginger, Nutmeg, Dark, Light, Seeds, Pecans
p230
sg4
(g8
S'7\x00\x00\x00\x00\x00\x00\x00'
p231
tp232
Rp233
VCilantro, Corn, Mango, Avocado, Jalapeno, Juiced, Tortillas, Tacos, Pitted
p234
sg4
(g8
S'8\x00\x00\x00\x00\x00\x00\x00'
p235
tp236
Rp237
VHead, Beef, Chunks, Carrots, Onions, Potatoes, Vegetable, Green, Tomato
p238
sg4
(g8
S'9\x00\x00\x00\x00\x00\x00\x00'
p239
tp240
Rp241
VCream, Adobo, Canned, Sour, Chips, Green, Tomato, Peppers, Tortilla
p242
sg4
(g8
S':\x00\x00\x00\x00\x00\x00\x00'
p243
tp244
Rp245
VS, John, Chef, Needed, Mom, Beef, Shepherd, Grandma, Favorite
p246
sg4
(g8
S';\x00\x00\x00\x00\x00\x00\x00'
p247
tp248
Rp249
VPurpose, Vegetable, Frying, Fried, Eggs, Quart, Needed, Cayenne, Paprika
p250
sg4
(g8
S'<\x00\x00\x00\x00\x00\x00\x00'
p251
tp252
Rp253
VBasil, Vinegar, Balsamic, Tomato, Cherry, Plum, Sun, Roma, Goat
p254
sg4
(g8
S'=\x00\x00\x00\x00\x00\x00\x00'
p255
tp256
Rp257
VCrackers, Style, Pork, Worcestershire, Brown, Sugar, Short, Baby, Barbeque
p258
sg4
(g8
S'>\x00\x00\x00\x00\x00\x00\x00'
p259
tp260
Rp261
VChiles, Cilantro, Seeds, Cumin, Jalape, O, Vegetable, Serrano, Peppers
p262
sg4
(g8
S'?\x00\x00\x00\x00\x00\x00\x00'
p263
tp264
Rp265
VSquash, Optional, Yellow, Cauliflower, Vegetable, Butternut, Summer, Rounds, Head
p266
sg4
(g8
S'@\x00\x00\x00\x00\x00\x00\x00'
p267
tp268
Rp269
VRoast, Rib, Brisket, Chuck, Broth, Carrots, Pot, Lean, Corned
p270
sg4
(g8
S'A\x00\x00\x00\x00\x00\x00\x00'
p271
tp272
Rp273
VCumin, Cayenne, Tomato, Oregano, Chili, Optional, Coriander, Paste, Smoked
p274
sg4
(g8
S'B\x00\x00\x00\x00\x00\x00\x00'
p275
tp276
Rp277
VGreen, Onions, Yellow, Peppers, Tomatoes, Quinoa, Hot, Sweet, Tomato
p278
sg4
(g8
S'C\x00\x00\x00\x00\x00\x00\x00'
p279
tp280
Rp281
VPitted, Lemon, Extra, Virgin, Capers, Anchovy, Roughly, Fillets, Lettuce
p282
sg4
(g8
S'D\x00\x00\x00\x00\x00\x00\x00'
p283
tp284
Rp285
VStalks, Carrots, Carrot, Broth, Stalk, Vegetable, Onions, Green, Sage
p286
sg4
(g8
S'E\x00\x00\x00\x00\x00\x00\x00'
p287
tp288
Rp289
VNoodles, Package, Mozzarella, Parmesan, Ricotta, Tomato, Beef, Italian, Oregano
p290
sg4
(g8
S'F\x00\x00\x00\x00\x00\x00\x00'
p291
tp292
Rp293
VMushrooms, Vegetable, Florets, Stir, Fry, Cornstarch, Broth, Bell, Shiitake
p294
sg4
(g8
S'G\x00\x00\x00\x00\x00\x00\x00'
p295
tp296
Rp297
VToasted, Nuts, Pine, Lemon, Scallops, Honey, Sea, Walnuts, Skewers
p298
sg4
(g8
S'H\x00\x00\x00\x00\x00\x00\x00'
p299
tp300
Rp301
VParmesan, Jar, Mozzarella, Package, Pasta, Eggplant, Basil, Shells, Italian
p302
sg4
(g8
S'I\x00\x00\x00\x00\x00\x00\x00'
p303
tp304
Rp305
VSkinless, Breast, Halves, Breasts, Broth, Thighs, Easy, Paprika, Ii
p306
sg4
(g8
S'J\x00\x00\x00\x00\x00\x00\x00'
p307
tp308
Rp309
VSweet, Potato, Gold, Mashed, Yukon, Roasted, Baby, Optional, Russet
p310
s.