ccollections
defaultdict
p0
(c__builtin__
list
p1
tp2
Rp3
cnumpy.core.multiarray
scalar
p4
(cnumpy
dtype
p5
(S'i8'
p6
I0
I1
tp7
Rp8
(I3
S'<'
p9
NNNI-1
I-1
I0
tp10
bS'\x00\x00\x00\x00\x00\x00\x00\x00'
p11
tp12
Rp13
VCrumbs, Seasoned, Egg, Eggs, Italian, Parmesan, Milk, Parsley, Beef
p14
sg4
(g8
S'\x01\x00\x00\x00\x00\x00\x00\x00'
p15
tp16
Rp17
VRinsed, Green, Bean, Tomatoes, Black, Cans, Chili, Cumin, Chickpeas
p18
sg4
(g8
S'\x02\x00\x00\x00\x00\x00\x00\x00'
p19
tp20
Rp21
VEggs, Frozen, Package, Thawed, Baby, Pie, Quiche, Milk, Parmesan
p22
sg4
(g8
S'\x03\x00\x00\x00\x00\x00\x00\x00'
p23
tp24
Rp25
VSeasoning, S, Bay, Old, Hot, Worcestershire, Mom, Poultry, Parsley
p26
sg4
(g8
S'\x04\x00\x00\x00\x00\x00\x00\x00'
p27
tp28
Rp29
VFluid, Bottle, Brown, Sugar, Pear, Barbeque, Onions, Pears, Light
p30
sg4
(g8
S'\x05\x00\x00\x00\x00\x00\x00\x00'
p31
tp32
Rp33
VGreen, Peppers, Cream, Chile, Sour, Tortillas, Mexican, Adobo, Corn
p34
sg4
(g8
S'\x06\x00\x00\x00\x00\x00\x00\x00'
p35
tp36
Rp37
VCorn, Unsalted, Toasted, Raw, Almond, Roasted, Slivered, Rib, Honey
p38
sg4
(g8
S'\x07\x00\x00\x00\x00\x00\x00\x00'
p39
tp40
Rp41
VEgg, Green, Cans, Cheddar, Mahi, Noodles, Casserole, Mayonnaise, Easy
p42
sg4
(g8
S'\x08\x00\x00\x00\x00\x00\x00\x00'
p43
tp44
Rp45
VVinegar, Cider, Sugar, Cored, Cinnamon, Apples, Brown, Raisins, Nutmeg
p46
sg4
(g8
S'\t\x00\x00\x00\x00\x00\x00\x00'
p47
tp48
Rp49
VGinger, Sugar, Sesame, Rice, Vinegar, Root, Honey, Brown, Wine
p50
sg4
(g8
S'\n\x00\x00\x00\x00\x00\x00\x00'
p51
tp52
Rp53
VTomato, Beef, Tomatoes, Italian, Package, Lean, Cans, Parmesan, Paste
p54
sg4
(g8
S'\x0b\x00\x00\x00\x00\x00\x00\x00'
p55
tp56
Rp57
VPurpose, Vegetable, Frying, Milk, Fried, Eggs, Baking, Cold, Quart
p58
sg4
(g8
S'\x0c\x00\x00\x00\x00\x00\x00\x00'
p59
tp60
Rp61
VHoney, Pitted, Lemon, Apricot, Ripe, Peach, Yogurt, Vanilla, Strawberries
p62
sg4
(g8
S'\r\x00\x00\x00\x00\x00\x00\x00'
p63
tp64
Rp65
VRoast, Slow, Bouillon, Cooker, Chuck, Boneless, Cube, Broth, Pot
p66
sg4
(g8
S'\x0e\x00\x00\x00\x00\x00\x00\x00'
p67
tp68
Rp69
VMilk, Macaroni, Package, Sharp, Elbow, Bread, Processed, Mac, Parmesan
p70
sg4
(g8
S'\x0f\x00\x00\x00\x00\x00\x00\x00'
p71
tp72
Rp73
VPurpose, Wine, Broth, Mushrooms, Stock, Vegetable, Meat, Needed, Marsala
p74
sg4
(g8
S'\x10\x00\x00\x00\x00\x00\x00\x00'
p75
tp76
Rp77
VHeavy, Egg, Sour, Milk, Sugar, Whipping, Yolks, Unsalted, Ice
p78
sg4
(g8
S'\x11\x00\x00\x00\x00\x00\x00\x00'
p79
tp80
Rp81
VSugar, Maple, Syrup, Vanilla, Extract, Pure, Unsweetened, Unsalted, Cocoa
p82
sg4
(g8
S'\x12\x00\x00\x00\x00\x00\x00\x00'
p83
tp84
Rp85
VSoup, Condensed, Mushroom, Sour, Package, Cans, Casserole, Cooked, Milk
p86
sg4
(g8
S'\x13\x00\x00\x00\x00\x00\x00\x00'
p87
tp88
Rp89
VCurry, Milk, Pineapple, Sugar, Ginger, Paste, Thai, Unsweetened, Fish
p90
sg4
(g8
S'\x14\x00\x00\x00\x00\x00\x00\x00'
p91
tp92
Rp93
VLeaf, Wine, Flat, Bay, Flakes, Tomatoes, Oregano, Clams, Scrubbed
p94
sg4
(g8
S'\x15\x00\x00\x00\x00\x00\x00\x00'
p95
tp96
Rp97
VBasil, Yellow, Squash, Nuts, Pine, Parmesan, Oregano, Summer, Tomatoes
p98
sg4
(g8
S'\x16\x00\x00\x00\x00\x00\x00\x00'
p99
tp100
Rp101
VVegetable, Firm, Sea, Scallops, Package, Roughly, Couscous, Swiss, Broth
p102
sg4
(g8
S'\x17\x00\x00\x00\x00\x00\x00\x00'
p103
tp104
Rp105
VGinger, Quinoa, Root, Soy, Onions, Cilantro, Green, Vegetable, Broth
p106
sg4
(g8
S'\x18\x00\x00\x00\x00\x00\x00\x00'
p107
tp108
Rp109
VSugar, Lime, Mint, Trout, Rum, Raspberry, Syrup, Pineapple, Optional
p110
sg4
(g8
S'\x19\x00\x00\x00\x00\x00\x00\x00'
p111
tp112
Rp113
VFrozen, Cooked, Pastry, Package, Thawed, Potatoes, Cheddar, Milk, Crust
p114
sg4
(g8
S'\x1a\x00\x00\x00\x00\x00\x00\x00'
p115
tp116
Rp117
VTomatoes, Plum, Needed, Liquid, Roma, Tomato, Flakes, Smoke, Flavoring
p118
sg4
(g8
S'\x1b\x00\x00\x00\x00\x00\x00\x00'
p119
tp120
Rp121
VWorcestershire, Lean, Ketchup, Tomato, Egg, Brisket, Meatloaf, Hot, Dash
p122
sg4
(g8
S'\x1c\x00\x00\x00\x00\x00\x00\x00'
p123
tp124
Rp125
VStalks, Bay, Carrots, Leaf, Carrot, Thyme, Stalk, Green, Parsley
p126
sg4
(g8
S'\x1d\x00\x00\x00\x00\x00\x00\x00'
p127
tp128
Rp129
VFlour, Unsalted, Purpose, Baking, Brown, Sticks, Egg, Vanilla, Extract
p130
sg4
(g8
S'\x1e\x00\x00\x00\x00\x00\x00\x00'
p131
tp132
Rp133
VLemon, Honey, Zest, Skewers, Juiced, Lime, Catfish, Citrus, Peel
p134
sg4
(g8
S'\x1f\x00\x00\x00\x00\x00\x00\x00'
p135
tp136
Rp137
VVinegar, Seeds, Kosher, Wine, Salad, Greens, Mustard, Kale, Virgin
p138
sg4
(g8
S' \x00\x00\x00\x00\x00\x00\x00'
p139
tp140
Rp141
VSesame, Toasted, Cucumber, Vinegar, Salad, Scallions, English, Lettuce, Pita
p142
sg4
(g8
S'!\x00\x00\x00\x00\x00\x00\x00'
p143
tp144
Rp145
VMustard, Cooked, Dijon, Prepared, Honey, Swiss, Bread, Mayonnaise, Horseradish
p146
sg4
(g8
S'"\x00\x00\x00\x00\x00\x00\x00'
p147
tp148
Rp149
VCooked, Pumpkin, Parmigiano, Reggiano, Pancetta, Onions, Salt, Stuffed, Tbsp
p150
sg4
(g8
S'#\x00\x00\x00\x00\x00\x00\x00'
p151
tp152
Rp153
VPurpose, Sugar, Grams, Milk, Warm, Eggs, Egg, Yeast, Unsalted
p154
sg4
(g8
S'$\x00\x00\x00\x00\x00\x00\x00'
p155
tp156
Rp157
VBuns, Hot, Hamburger, Bread, Mayonnaise, Sandwich, Rolls, Burgers, Blue
p158
sg4
(g8
S'%\x00\x00\x00\x00\x00\x00\x00'
p159
tp160
Rp161
VThyme, Lamb, Sprigs, Wine, Sprig, Vinegar, Balsamic, Leg, Marjoram
p162
sg4
(g8
S'&\x00\x00\x00\x00\x00\x00\x00'
p163
tp164
Rp165
VVegetable, Green, Rice, Cornstarch, Sugar, Sesame, Ginger, Stir, Fry
p166
sg4
(g8
S"'\x00\x00\x00\x00\x00\x00\x00"
p167
tp168
Rp169
VStyle, Salad, Package, Mix, Italian, Ranch, Cranberry, Bow, Farfalle
p170
sg4
(g8
S'(\x00\x00\x00\x00\x00\x00\x00'
p171
tp172
Rp173
VCooking, Vegetable, Bread, Egg, Crumbs, Eggs, Panko, Nonstick, Breadcrumbs
p174
sg4
(g8
S')\x00\x00\x00\x00\x00\x00\x00'
p175
tp176
Rp177
VCooking, Optional, Quick, Cinnamon, Wheat, Rolled, Walnuts, Old, Mini
p178
sg4
(g8
S'*\x00\x00\x00\x00\x00\x00\x00'
p179
tp180
Rp181
VPork, Style, Short, Brown, Chili, Bbq, Spareribs, Barbeque, Country
p182
sg4
(g8
S'+\x00\x00\x00\x00\x00\x00\x00'
p183
tp184
Rp185
VTortillas, Corn, Monterey, Cheddar, Flour, Green, Sour, Chili, Cream
p186
sg4
(g8
S',\x00\x00\x00\x00\x00\x00\x00'
p187
tp188
Rp189
VSkinless, Breast, Halves, Breasts, Thighs, Pounded, Thickness, Wine, Style
p190
sg4
(g8
S'-\x00\x00\x00\x00\x00\x00\x00'
p191
tp192
Rp193
VSmoked, Cayenne, Chili, Cumin, Spicy, Hot, Sweet, Oregano, Spanish
p194
sg4
(g8
S'.\x00\x00\x00\x00\x00\x00\x00'
p195
tp196
Rp197
VGreen, Peppers, Yellow, Onions, Chile, Jalapeno, Cajun, Stuffed, Seasoning
p198
sg4
(g8
S'/\x00\x00\x00\x00\x00\x00\x00'
p199
tp200
Rp201
VCilantro, Chile, Chiles, Jalape, O, Juiced, Cumin, Jalapeno, Salsa
p202
sg4
(g8
S'0\x00\x00\x00\x00\x00\x00\x00'
p203
tp204
Rp205
VGreen, Tomatoes, Tomato, Peppers, Onions, Chunks, Mushrooms, Oregano, Olives
p206
sg4
(g8
S'1\x00\x00\x00\x00\x00\x00\x00'
p207
tp208
Rp209
VSage, Squash, Stuffing, Butternut, Celery, Seasoned, Herb, Gravy, Neck
p210
sg4
(g8
S'2\x00\x00\x00\x00\x00\x00\x00'
p211
tp212
Rp213
VMushroom, Wine, Artichoke, Venison, Wild, Portobello, Hearts, Marinated, Shiitake
p214
sg4
(g8
S'3\x00\x00\x00\x00\x00\x00\x00'
p215
tp216
Rp217
VMozzarella, Lasagna, Parmesan, Ricotta, Noodles, Egg, Spinach, Jar, Container
p218
sg4
(g8
S'4\x00\x00\x00\x00\x00\x00\x00'
p219
tp220
Rp221
VVirgin, Roasted, Red, Sea, Prosciutto, Rosemary, Thyme, Wine, Pepper
p222
sg4
(g8
S'5\x00\x00\x00\x00\x00\x00\x00'
p223
tp224
Rp225
VUncooked, Grain, Long, Cabbage, Broth, Vegetable, Brown, Green, Instant
p226
sg4
(g8
S'6\x00\x00\x00\x00\x00\x00\x00'
p227
tp228
Rp229
VPasta, Asparagus, Basil, Cherry, Extra, Virgin, Angel, Package, Hair
p230
sg4
(g8
S'7\x00\x00\x00\x00\x00\x00\x00'
p231
tp232
Rp233
VHead, Florets, Optional, Cabbage, Cauliflower, Vegetable, Cooked, Flakes, Carrots
p234
sg4
(g8
S'8\x00\x00\x00\x00\x00\x00\x00'
p235
tp236
Rp237
VS, Crackers, John, Chef, Buttery, Needed, Round, Saltine, Melted
p238
sg4
(g8
S'9\x00\x00\x00\x00\x00\x00\x00'
p239
tp240
Rp241
VSeasoning, Package, Beef, Taco, Corn, Mexican, Flavored, Blend, Salsa
p242
sg4
(g8
S':\x00\x00\x00\x00\x00\x00\x00'
p243
tp244
Rp245
VPotato, Sweet, Chunks, Gold, Onions, Carrots, Yukon, Vegetable, Hash
p246
sg4
(g8
S';\x00\x00\x00\x00\x00\x00\x00'
p247
tp248
Rp249
VDeveined, Lemon, Parsley, Wine, Cooked, Lobster, Juiced, Tails, Hot
p250
sg4
(g8
S'<\x00\x00\x00\x00\x00\x00\x00'
p251
tp252
Rp253
VLow, Sodium, Broth, Reduced, Free, Wheat, Gluten, Optional, Dice
p254
sg4
(g8
S'=\x00\x00\x00\x00\x00\x00\x00'
p255
tp256
Rp257
VFeta, Mozzarella, Olives, Tomatoes, Dough, Crust, Oregano, Pepperoni, Basil
p258
sg4
(g8
S'>\x00\x00\x00\x00\x00\x00\x00'
p259
tp260
Rp261
VItalian, Seasoning, Sweet, Package, Links, Pork, Kielbasa, Hot, Style
p262
sg4
(g8
S'?\x00\x00\x00\x00\x00\x00\x00'
p263
tp264
Rp265
VPeas, Thawed, G, Package, Shelled, Optional, Pea, Spring, Vegetables
p266
sg4
(g8
S'@\x00\x00\x00\x00\x00\x00\x00'
p267
tp268
Rp269
VFillets, Lemon, Dill, Fish, Tilapia, Halibut, Cod, Weed, Fillet
p270
sg4
(g8
S'A\x00\x00\x00\x00\x00\x00\x00'
p271
tp272
Rp273
VParsley, Extra, Virgin, Flat, Kosher, Leaf, Sea, Zest, Chives
p274
sg4
(g8
S'B\x00\x00\x00\x00\x00\x00\x00'
p275
tp276
Rp277
VYogurt, Coriander, Curry, Seeds, Turmeric, Ginger, Vegetable, Cinnamon, Cilantro
p278
sg4
(g8
S'C\x00\x00\x00\x00\x00\x00\x00'
p279
tp280
Rp281
VParmesan, Package, Cream, Penne, Linguine, Heavy, Fettuccine, Uncooked, Basil
p282
sg4
(g8
S'D\x00\x00\x00\x00\x00\x00\x00'
p283
tp284
Rp285
VBreast, Skinless, Halves, Breasts, Lemon, Broth, Paprika, Sherry, Garlic
p286
sg4
(g8
S'E\x00\x00\x00\x00\x00\x00\x00'
p287
tp288
Rp289
VThighs, Kosher, Roasted, Wine, Bone, Baby, Vinegar, Carrots, Stems
p290
sg4
(g8
S'F\x00\x00\x00\x00\x00\x00\x00'
p291
tp292
Rp293
VSugar, Brown, Vinegar, Ketchup, Worcestershire, Dijon, Prepared, Yellow, Distilled
p294
sg4
(g8
S'G\x00\x00\x00\x00\x00\x00\x00'
p295
tp296
Rp297
VChops, Roast, Boneless, Loin, Tenderloin, Shoulder, Slow, Cooker, Bone
p298
sg4
(g8
S'H\x00\x00\x00\x00\x00\x00\x00'
p299
tp300
Rp301
VBeef, Steaks, Vegetable, Round, Sirloin, Flank, Seasoning, Rib, Worcestershire
p302
sg4
(g8
S'I\x00\x00\x00\x00\x00\x00\x00'
p303
tp304
Rp305
VTomato, Eggplant, Tomatoes, Pesto, Mozzarella, Parmesan, Oregano, Goat, Sun
p306
sg4
(g8
S'J\x00\x00\x00\x00\x00\x00\x00'
p307
tp308
Rp309
VSea, Parsley, Zest, Capers, Fillets, Olive, Kosher, Anchovy, Pitted
p310
s.