ccollections
defaultdict
p0
(c__builtin__
list
p1
tp2
Rp3
cnumpy.core.multiarray
scalar
p4
(cnumpy
dtype
p5
(S'i8'
p6
I0
I1
tp7
Rp8
(I3
S'<'
p9
NNNI-1
I-1
I0
tp10
bS'\x00\x00\x00\x00\x00\x00\x00\x00'
p11
tp12
Rp13
VParmesan, Package, Asparagus, Penne, Broccoli, Basil, Mushrooms, Cream, Fettuccine
p14
sg4
(g8
S'\x01\x00\x00\x00\x00\x00\x00\x00'
p15
tp16
Rp17
VFennel, Carrots, Seeds, Stalks, Bay, Cauliflower, Leaf, Parsley, Carrot
p18
sg4
(g8
S'\x02\x00\x00\x00\x00\x00\x00\x00'
p19
tp20
Rp21
VFlour, Unsalted, Purpose, Baking, Chocolate, Vanilla, Egg, Extract, Eggs
p22
sg4
(g8
S'\x03\x00\x00\x00\x00\x00\x00\x00'
p23
tp24
Rp25
VParsley, Virgin, Tomatoes, Wine, Olives, Leaf, Flat, Flakes, Italian
p26
sg4
(g8
S'\x04\x00\x00\x00\x00\x00\x00\x00'
p27
tp28
Rp29
VWine, Rosemary, Broth, Bay, Celery, Stock, Purpose, Onions, Flour
p30
sg4
(g8
S'\x05\x00\x00\x00\x00\x00\x00\x00'
p31
tp32
Rp33
VSalad, Wine, Apple, Lemon, Extra, Virgin, Mustard, Toasted, Chives
p34
sg4
(g8
S'\x06\x00\x00\x00\x00\x00\x00\x00'
p35
tp36
Rp37
VCrumbs, Egg, Beef, Eggs, Seasoned, Italian, Meatloaf, Lean, Worcestershire
p38
sg4
(g8
S'\x07\x00\x00\x00\x00\x00\x00\x00'
p39
tp40
Rp41
VSlow, Pizza, Cooker, Liquid, Venison, Barbeque, Smoked, Sauerkraut, Smoke
p42
sg4
(g8
S'\x08\x00\x00\x00\x00\x00\x00\x00'
p43
tp44
Rp45
VCorn, Seasoning, Mix, Stuffing, Needed, Herb, Vegetable, Gravy, Sage
p46
sg4
(g8
S'\t\x00\x00\x00\x00\x00\x00\x00'
p47
tp48
Rp49
VLemon, Syrup, Maple, Lime, Zest, Sugar, Optional, Oranges, Citrus
p50
sg4
(g8
S'\n\x00\x00\x00\x00\x00\x00\x00'
p51
tp52
Rp53
VFillets, Fish, Parsley, Tilapia, Seasoning, Halibut, Cod, Paprika, Thyme
p54
sg4
(g8
S'\x0b\x00\x00\x00\x00\x00\x00\x00'
p55
tp56
Rp57
VCabbage, Head, Bouillon, Potatoes, Brisket, Meat, Tomato, Chunks, Onions
p58
sg4
(g8
S'\x0c\x00\x00\x00\x00\x00\x00\x00'
p59
tp60
Rp61
VPitted, Virgin, Sea, Lemon, Jalape, Avocado, O, Mint, Ripe
p62
sg4
(g8
S'\r\x00\x00\x00\x00\x00\x00\x00'
p63
tp64
Rp65
VHeavy, Sour, Whipping, Soup, Cooked, Milk, Mushrooms, Crackers, Melted
p66
sg4
(g8
S'\x0e\x00\x00\x00\x00\x00\x00\x00'
p67
tp68
Rp69
VCorn, Jack, Green, Salsa, Flour, Monterey, Cream, Cheddar, Mexican
p70
sg4
(g8
S'\x0f\x00\x00\x00\x00\x00\x00\x00'
p71
tp72
Rp73
VSausage, Uncooked, Grain, Long, Green, Hot, Broth, Bell, Smoked
p74
sg4
(g8
S'\x10\x00\x00\x00\x00\x00\x00\x00'
p75
tp76
Rp77
VRoast, Buns, Beer, Hamburger, Split, Fluid, Chuck, Worcestershire, Bottle
p78
sg4
(g8
S'\x11\x00\x00\x00\x00\x00\x00\x00'
p79
tp80
Rp81
VGreen, Peppers, Yellow, Onions, Tomatoes, Stuffed, Tomato, Mushrooms, Seasoning
p82
sg4
(g8
S'\x12\x00\x00\x00\x00\x00\x00\x00'
p83
tp84
Rp85
VAlmonds, Cinnamon, Vanilla, Almond, Honey, Cranberry, Brown, Apricot, Cranberries
p86
sg4
(g8
S'\x13\x00\x00\x00\x00\x00\x00\x00'
p87
tp88
Rp89
VRosemary, Vinegar, Lemon, Balsamic, Thyme, Wine, Sprigs, Leg, Honey
p90
sg4
(g8
S'\x14\x00\x00\x00\x00\x00\x00\x00'
p91
tp92
Rp93
VBrown, Sugar, Pineapple, Mustard, Honey, Bone, Thighs, Skin, Cooked
p94
sg4
(g8
S'\x15\x00\x00\x00\x00\x00\x00\x00'
p95
tp96
Rp97
VSoy, Vegetable, Green, Noodles, Cornstarch, Peas, Stir, Onions, Ginger
p98
sg4
(g8
S'\x16\x00\x00\x00\x00\x00\x00\x00'
p99
tp100
Rp101
VCans, Tomatoes, Paste, Tuna, Optional, Green, Oregano, Bell, Canned
p102
sg4
(g8
S'\x17\x00\x00\x00\x00\x00\x00\x00'
p103
tp104
Rp105
VYogurt, Ginger, Coriander, Seeds, Curry, Cinnamon, Turmeric, Cayenne, Vegetable
p106
sg4
(g8
S'\x18\x00\x00\x00\x00\x00\x00\x00'
p107
tp108
Rp109
VBeef, Steaks, Ribs, Sirloin, Round, Wine, Vegetable, Flank, Short
p110
sg4
(g8
S'\x19\x00\x00\x00\x00\x00\x00\x00'
p111
tp112
Rp113
VFat, Spray, Free, Pumpkin, Vegetable, Reduced, Oats, Low, Wheat
p114
sg4
(g8
S'\x1a\x00\x00\x00\x00\x00\x00\x00'
p115
tp116
Rp117
VSweet, Potato, Onions, Carrots, Vegetable, Gold, Baby, Broth, Unsalted
p118
sg4
(g8
S'\x1b\x00\x00\x00\x00\x00\x00\x00'
p119
tp120
Rp121
VDressing, Style, Salad, Italian, Mushroom, Package, Ranch, Mix, Portobello
p122
sg4
(g8
S'\x1c\x00\x00\x00\x00\x00\x00\x00'
p123
tp124
Rp125
VCream, Condensed, Package, Mushroom, Casserole, Cans, Mix, Cheddar, Noodles
p126
sg4
(g8
S'\x1d\x00\x00\x00\x00\x00\x00\x00'
p127
tp128
Rp129
VChile, Cilantro, Cumin, Peppers, Chipotle, Chiles, Jalapeno, Juiced, Adobo
p130
sg4
(g8
S'\x1e\x00\x00\x00\x00\x00\x00\x00'
p131
tp132
Rp133
VSesame, Ginger, Sugar, Rice, Vinegar, Tofu, Green, Seeds, Root
p134
sg4
(g8
S'\x1f\x00\x00\x00\x00\x00\x00\x00'
p135
tp136
Rp137
VLemon, Dill, Fillets, Mustard, Dijon, Mayonnaise, Sea, Fillet, Weed
p138
sg4
(g8
S' \x00\x00\x00\x00\x00\x00\x00'
p139
tp140
Rp141
VExtra, Virgin, Kale, Sodium, Low, Yellow, Butternut, Stems, Roasted
p142
sg4
(g8
S'!\x00\x00\x00\x00\x00\x00\x00'
p143
tp144
Rp145
VCurry, Milk, Sugar, Lime, Ginger, Thai, Vegetable, Paste, Skewers
p146
sg4
(g8
S'"\x00\x00\x00\x00\x00\x00\x00'
p147
tp148
Rp149
VMayonnaise, Sandwich, Eggplant, Crumbs, Eggs, Parmesan, Swiss, French, Toasted
p150
sg4
(g8
S'#\x00\x00\x00\x00\x00\x00\x00'
p151
tp152
Rp153
VPurpose, Vegetable, Frying, Milk, Needed, Eggs, Egg, Fried, Cold
p154
sg4
(g8
S'$\x00\x00\x00\x00\x00\x00\x00'
p155
tp156
Rp157
VRinsed, Green, Bean, Vegetable, Quinoa, Cans, Tomatoes, Chili, Chickpeas
p158
sg4
(g8
S'%\x00\x00\x00\x00\x00\x00\x00'
p159
tp160
Rp161
VMilk, Macaroni, Package, Sharp, Flour, Purpose, Elbow, Casserole, Bread
p162
sg4
(g8
S'&\x00\x00\x00\x00\x00\x00\x00'
p163
tp164
Rp165
VSugar, Brown, Vinegar, Hot, Worcestershire, Ketchup, Prepared, Yellow, Cider
p166
sg4
(g8
S"'\x00\x00\x00\x00\x00\x00\x00"
p167
tp168
Rp169
VSkinless, Breast, Halves, Breasts, Broth, Wine, Pounded, Easy, Vegetable
p170
sg4
(g8
S'(\x00\x00\x00\x00\x00\x00\x00'
p171
tp172
Rp173
VChops, Boneless, Loin, Roast, Apple, Tenderloin, Sugar, Brown, Ribs
p174
sg4
(g8
S')\x00\x00\x00\x00\x00\x00\x00'
p175
tp176
Rp177
VDeveined, Lemon, Parsley, Seasoning, Scallops, Bay, Crab, Wine, Crabmeat
p178
sg4
(g8
S'*\x00\x00\x00\x00\x00\x00\x00'
p179
tp180
Rp181
VBasil, Zucchini, Tomato, Oregano, Parmesan, Spinach, Nuts, Plum, Feta
p182
sg4
(g8
S'+\x00\x00\x00\x00\x00\x00\x00'
p183
tp184
Rp185
VPackage, Parmesan, Italian, Lasagna, Spaghetti, Ricotta, Spinach, Noodles, Jar
p186
sg4
(g8
S',\x00\x00\x00\x00\x00\x00\x00'
p187
tp188
Rp189
VPie, Thawed, Package, Cooked, Spinach, Crust, Peas, Eggs, Pastry
p190
s.