ccollections
defaultdict
p0
(c__builtin__
list
p1
tp2
Rp3
cnumpy.core.multiarray
scalar
p4
(cnumpy
dtype
p5
(S'i8'
p6
I0
I1
tp7
Rp8
(I3
S'<'
p9
NNNI-1
I-1
I0
tp10
bS'\x00\x00\x00\x00\x00\x00\x00\x00'
p11
tp12
Rp13
VTuna, Fillets, Steaks, Lemon, Skin, Juice, Grilled, Fillet, Dill
p14
sg4
(g8
S'\x01\x00\x00\x00\x00\x00\x00\x00'
p15
tp16
Rp17
VSteak, Steaks, Sirloin, Strips, Flank, Round, Vegetable, Tenderloin, Mushrooms
p18
sg4
(g8
S'\x02\x00\x00\x00\x00\x00\x00\x00'
p19
tp20
Rp21
VPackage, Parmesan, Penne, Basil, Angel, Linguine, Tomatoes, Hair, Pesto
p22
sg4
(g8
S'\x03\x00\x00\x00\x00\x00\x00\x00'
p23
tp24
Rp25
VSprigs, Mint, Thyme, Fresh, Garlic, Red, Herb, Chives, Freshly
p26
sg4
(g8
S'\x04\x00\x00\x00\x00\x00\x00\x00'
p27
tp28
Rp29
VStems, Quinoa, Kale, Kosher, Greens, Carrot, Couscous, Vegetable, Carrots
p30
sg4
(g8
S'\x05\x00\x00\x00\x00\x00\x00\x00'
p31
tp32
Rp33
VGreen, Onions, Eggs, Cooked, Needed, Fried, Hard, Cold, Boiled
p34
sg4
(g8
S'\x06\x00\x00\x00\x00\x00\x00\x00'
p35
tp36
Rp37
VHead, Onions, Carrots, Brisket, Kielbasa, Corned, Spice, Vegetable, Sausage
p38
sg4
(g8
S'\x07\x00\x00\x00\x00\x00\x00\x00'
p39
tp40
Rp41
VUncooked, Grain, Long, Broth, Wild, Brown, Saffron, Vegetable, Instant
p42
sg4
(g8
S'\x08\x00\x00\x00\x00\x00\x00\x00'
p43
tp44
Rp45
VSugar, Cream, Vanilla, Unsalted, Extract, Unsweetened, Cocoa, Coffee, Bittersweet
p46
sg4
(g8
S'\t\x00\x00\x00\x00\x00\x00\x00'
p47
tp48
Rp49
VChops, Tenderloin, Boneless, Loin, Wine, Vegetable, Rosemary, Soy, Grilled
p50
sg4
(g8
S'\n\x00\x00\x00\x00\x00\x00\x00'
p51
tp52
Rp53
VSour, Cheddar, Broccoli, Cauliflower, Florets, Cooked, Heavy, Optional, Softened
p54
sg4
(g8
S'\x0b\x00\x00\x00\x00\x00\x00\x00'
p55
tp56
Rp57
VDeveined, Corn, Cooked, Hot, Uncooked, Cayenne, Ears, Tails, Bell
p58
sg4
(g8
S'\x0c\x00\x00\x00\x00\x00\x00\x00'
p59
tp60
Rp61
VPeppers, Chipotle, Cilantro, Cumin, Jalapeno, Adobo, Lime, Chiles, Mahi
p62
sg4
(g8
S'\r\x00\x00\x00\x00\x00\x00\x00'
p63
tp64
Rp65
VCooker, Slow, Cored, Apples, Sugar, Cider, Cinnamon, Brown, Raisins
p66
sg4
(g8
S'\x0e\x00\x00\x00\x00\x00\x00\x00'
p67
tp68
Rp69
VYellow, Avocado, Mango, Pitted, Plum, Cilantro, Butternut, Bell, Optional
p70
sg4
(g8
S'\x0f\x00\x00\x00\x00\x00\x00\x00'
p71
tp72
Rp73
VOlives, Feta, Tomato, Pitted, Cherry, Sun, Basil, Oregano, Wine
p74
sg4
(g8
S'\x10\x00\x00\x00\x00\x00\x00\x00'
p75
tp76
Rp77
VSage, Celery, Cooked, Broth, Stuffing, Thyme, Meat, Parsley, Seasoning
p78
sg4
(g8
S'\x11\x00\x00\x00\x00\x00\x00\x00'
p79
tp80
Rp81
VCurry, Milk, Ginger, Paste, Unsweetened, Vegetable, Flakes, Optional, Light
p82
sg4
(g8
S'\x12\x00\x00\x00\x00\x00\x00\x00'
p83
tp84
Rp85
VCrumbs, Egg, Seasoned, Eggs, Panko, Meatballs, Italian, Parmesan, Beef
p86
sg4
(g8
S'\x13\x00\x00\x00\x00\x00\x00\x00'
p87
tp88
Rp89
VSkinless, Breast, Halves, Breasts, Strips, Thighs, Pounded, Wine, Broth
p90
sg4
(g8
S'\x14\x00\x00\x00\x00\x00\x00\x00'
p91
tp92
Rp93
VMozzarella, Asparagus, Parmesan, Dough, Prosciutto, Crust, Pepperoni, Refrigerated, Pesto
p94
sg4
(g8
S'\x15\x00\x00\x00\x00\x00\x00\x00'
p95
tp96
Rp97
VRoast, Carrots, Wine, Celery, Broth, Thyme, Chuck, Rosemary, Bay
p98
sg4
(g8
S'\x16\x00\x00\x00\x00\x00\x00\x00'
p99
tp100
Rp101
VPurpose, Vegetable, Frying, Fried, Seasoning, Paprika, Cayenne, Quart, Milk
p102
sg4
(g8
S'\x17\x00\x00\x00\x00\x00\x00\x00'
p103
tp104
Rp105
VGinger, Sesame, Sugar, Rice, Vinegar, Root, Green, Honey, Cornstarch
p106
sg4
(g8
S'\x18\x00\x00\x00\x00\x00\x00\x00'
p107
tp108
Rp109
VLasagna, Parmesan, Ricotta, Mozzarella, Noodles, Spaghetti, Container, Jar, Pasta
p110
sg4
(g8
S'\x19\x00\x00\x00\x00\x00\x00\x00'
p111
tp112
Rp113
VJack, Green, Monterey, Flour, Corn, Cream, Sour, Beans, Salsa
p114
sg4
(g8
S'\x1a\x00\x00\x00\x00\x00\x00\x00'
p115
tp116
Rp117
VBalsamic, Extra, Virgin, Wine, Salad, Kosher, Shallot, Arugula, Roasted
p118
sg4
(g8
S'\x1b\x00\x00\x00\x00\x00\x00\x00'
p119
tp120
Rp121
VJalape, O, Scallops, Rinsed, Cilantro, Roasted, Chile, Chiles, Pepper
p122
sg4
(g8
S'\x1c\x00\x00\x00\x00\x00\x00\x00'
p123
tp124
Rp125
VYogurt, Greek, Sea, Juice, Nuts, Mint, Pine, Extra, Virgin
p126
sg4
(g8
S'\x1d\x00\x00\x00\x00\x00\x00\x00'
p127
tp128
Rp129
VEggplant, Parmesan, Jar, Mozzarella, Package, Italian, Basil, Artichoke, Tomato
p130
sg4
(g8
S'\x1e\x00\x00\x00\x00\x00\x00\x00'
p131
tp132
Rp133
VCream, Condensed, Mix, Package, Mushroom, Slow, Cans, Mushrooms, Cooker
p134
sg4
(g8
S'\x1f\x00\x00\x00\x00\x00\x00\x00'
p135
tp136
Rp137
VJuice, Dill, Parsley, Zest, Wine, Weed, Trout, Thyme, Capers
p138
sg4
(g8
S' \x00\x00\x00\x00\x00\x00\x00'
p139
tp140
Rp141
VSpinach, Thawed, Peas, Package, Baby, Parmesan, Bag, Mushrooms, Egg
p142
sg4
(g8
S'!\x00\x00\x00\x00\x00\x00\x00'
p143
tp144
Rp145
VCrosswise, Onions, Rib, Unsalted, Kosher, Extra, Bulb, Roasted, Cr
p146
sg4
(g8
S'"\x00\x00\x00\x00\x00\x00\x00'
p147
tp148
Rp149
VParsley, Flat, Bay, Celery, Crab, Crabmeat, Thyme, Old, Seasoning
p150
sg4
(g8
S'#\x00\x00\x00\x00\x00\x00\x00'
p151
tp152
Rp153
VBeef, Mix, Seasoning, Taco, Package, Cheddar, Chili, Tomato, Salsa
p154
sg4
(g8
S'$\x00\x00\x00\x00\x00\x00\x00'
p155
tp156
Rp157
VSpray, Oats, Sweet, Quick, Egg, Optional, Wheat, Vegetable, Brussels
p158
sg4
(g8
S'%\x00\x00\x00\x00\x00\x00\x00'
p159
tp160
Rp161
VItalian, Seasoning, Sweet, Bell, Smoked, Links, Hot, Spicy, Chorizo
p162
sg4
(g8
S'&\x00\x00\x00\x00\x00\x00\x00'
p163
tp164
Rp165
VLime, Pineapple, Lemon, Sugar, Chunks, Orange, Rum, Mint, Grapefruit
p166
sg4
(g8
S"'\x00\x00\x00\x00\x00\x00\x00"
p167
tp168
Rp169
VLemon, Juice, Fish, Tilapia, Halibut, Cod, Sea, Baked, Catfish
p170
sg4
(g8
S'(\x00\x00\x00\x00\x00\x00\x00'
p171
tp172
Rp173
VCrumbs, Eggs, Seasoned, Parmesan, Loaf, Ham, Melted, Italian, Milk
p174
sg4
(g8
S')\x00\x00\x00\x00\x00\x00\x00'
p175
tp176
Rp177
VGreen, Peppers, Yellow, Strips, Onions, Stuffed, Tomatoes, Tomato, Skewers
p178
sg4
(g8
S'*\x00\x00\x00\x00\x00\x00\x00'
p179
tp180
Rp181
VVirgin, Parsley, Flakes, Wine, Clams, Linguine, Basil, Parmigiano, Reggiano
p182
sg4
(g8
S'+\x00\x00\x00\x00\x00\x00\x00'
p183
tp184
Rp185
VJuice, Zest, Cranberry, Lemon, Rib, Pear, Oranges, Sugar, Citrus
p186
sg4
(g8
S',\x00\x00\x00\x00\x00\x00\x00'
p187
tp188
Rp189
VPaprika, Pork, Style, Chili, Cayenne, Vinegar, Smoked, Hot, Short
p190
sg4
(g8
S'-\x00\x00\x00\x00\x00\x00\x00'
p191
tp192
Rp193
VMacaroni, Milk, Package, Sharp, Elbow, Casserole, Mac, Processed, Cans
p194
sg4
(g8
S'.\x00\x00\x00\x00\x00\x00\x00'
p195
tp196
Rp197
VUnsalted, Flour, Egg, Vanilla, Purpose, Extract, Baking, Grams, Sticks
p198
sg4
(g8
S'/\x00\x00\x00\x00\x00\x00\x00'
p199
tp200
Rp201
VSugar, Beef, Brown, Worcestershire, Mustard, Crackers, Meatloaf, Egg, Lean
p202
sg4
(g8
S'0\x00\x00\x00\x00\x00\x00\x00'
p203
tp204
Rp205
VSplit, Buns, Hamburger, Lean, Worcestershire, Burgers, Rolls, Tomato, Ketchup
p206
sg4
(g8
S'1\x00\x00\x00\x00\x00\x00\x00'
p207
tp208
Rp209
VPurpose, Milk, Yeast, Warm, Nutmeg, Egg, Pumpkin, Active, Vegetable
p210
sg4
(g8
S'2\x00\x00\x00\x00\x00\x00\x00'
p211
tp212
Rp213
VHot, Blue, Venison, Smoked, Dogs, Buffalo, Dog, Dash, Stuffed
p214
sg4
(g8
S'3\x00\x00\x00\x00\x00\x00\x00'
p215
tp216
Rp217
VPotato, Sweet, Gold, Mashed, Yukon, Wine, Unsalted, Roasted, Mussels
p218
sg4
(g8
S'4\x00\x00\x00\x00\x00\x00\x00'
p219
tp220
Rp221
VFluid, Bottle, Liquid, Thighs, Bone, Skin, Worcestershire, Sugar, Smoke
p222
sg4
(g8
S'5\x00\x00\x00\x00\x00\x00\x00'
p223
tp224
Rp225
VGreen, Vegetable, Cornstarch, Bell, Stir, Peas, Fry, Rice, Strips
p226
sg4
(g8
S'6\x00\x00\x00\x00\x00\x00\x00'
p227
tp228
Rp229
VGinger, Vegetable, Turmeric, Coriander, Cilantro, Curry, Cayenne, Paste, Masala
p230
sg4
(g8
S'7\x00\x00\x00\x00\x00\x00\x00'
p231
tp232
Rp233
VFrozen, Crust, Pastry, Package, Thawed, Cooked, Eggs, Egg, Pot
p234
sg4
(g8
S'8\x00\x00\x00\x00\x00\x00\x00'
p235
tp236
Rp237
VSoup, Condensed, Mushroom, Cans, Casserole, Package, Sour, Egg, Noodles
p238
sg4
(g8
S'9\x00\x00\x00\x00\x00\x00\x00'
p239
tp240
Rp241
VPurpose, Baking, Eggs, Unsalted, Buttermilk, Vegetable, Milk, Egg, Soda
p242
sg4
(g8
S':\x00\x00\x00\x00\x00\x00\x00'
p243
tp244
Rp245
VBrown, Vinegar, Ham, Cider, Apple, Distilled, Cooked, Light, Honey
p246
sg4
(g8
S';\x00\x00\x00\x00\x00\x00\x00'
p247
tp248
Rp249
VVegetable, Bouillon, Chunks, Meat, Needed, Potatoes, Stew, Carrots, Broth
p250
sg4
(g8
S'<\x00\x00\x00\x00\x00\x00\x00'
p251
tp252
Rp253
VRoast, Boneless, Loin, Shoulder, Barbeque, Pulled, Butt, Bone, Flakes
p254
sg4
(g8
S'=\x00\x00\x00\x00\x00\x00\x00'
p255
tp256
Rp257
VCilantro, Thai, Sugar, Rice, Fish, Juice, Paste, Chile, Vegetable
p258
sg4
(g8
S'>\x00\x00\x00\x00\x00\x00\x00'
p259
tp260
Rp261
VGreen, Rinsed, Bell, Bean, Cans, Tomatoes, Chickpeas, Kidney, Garbanzo
p262
sg4
(g8
S'?\x00\x00\x00\x00\x00\x00\x00'
p263
tp264
Rp265
VDressing, Seasoning, Italian, Salad, Mix, Ranch, Package, Packet, Steak
p266
sg4
(g8
S'@\x00\x00\x00\x00\x00\x00\x00'
p267
tp268
Rp269
VDijon, Prepared, Honey, Horseradish, Yellow, Mayonnaise, Cayenne, Style, Worcestershire
p270
sg4
(g8
S'A\x00\x00\x00\x00\x00\x00\x00'
p271
tp272
Rp273
VVanilla, Honey, Free, Strawberries, Milk, Raspberry, Strawberry, Frozen, Gluten
p274
sg4
(g8
S'B\x00\x00\x00\x00\x00\x00\x00'
p275
tp276
Rp277
VSesame, Seed, Kosher, Fennel, Toasted, Coriander, Pumpkin, Vinegar, Pomegranate
p278
sg4
(g8
S'C\x00\x00\x00\x00\x00\x00\x00'
p279
tp280
Rp281
VJuice, Tofu, Juiced, Firm, Basil, Grilled, Oregano, Soy, Lemons
p282
sg4
(g8
S'D\x00\x00\x00\x00\x00\x00\x00'
p283
tp284
Rp285
VS, Needed, John, Cayenne, Chef, Mom, Shepherd, Grandma, Flakes
p286
sg4
(g8
S'E\x00\x00\x00\x00\x00\x00\x00'
p287
tp288
Rp289
VMayonnaise, Lettuce, Sandwich, Tomato, Cucumber, Grilled, English, Pita, Salad
p290
sg4
(g8
S'F\x00\x00\x00\x00\x00\x00\x00'
p291
tp292
Rp293
VLow, Sodium, Broth, Reduced, Free, Cooking, Spray, Wheat, Vegetable
p294
sg4
(g8
S'G\x00\x00\x00\x00\x00\x00\x00'
p295
tp296
Rp297
VSyrup, Almonds, Honey, Sugar, Apricot, Peach, Pecans, Toasted, Light
p298
sg4
(g8
S'H\x00\x00\x00\x00\x00\x00\x00'
p299
tp300
Rp301
VCream, Heavy, Wine, Mushroom, Portobello, Whipping, Broth, Stock, Marsala
p302
sg4
(g8
S'I\x00\x00\x00\x00\x00\x00\x00'
p303
tp304
Rp305
VRosemary, Thyme, Wine, Allspice, G, Leg, Onions, Oregano, Cayenne
p306
sg4
(g8
S'J\x00\x00\x00\x00\x00\x00\x00'
p307
tp308
Rp309
VTomatoes, Zucchini, Basil, Oregano, Paste, Parmesan, Cans, Stewed, Mozzarella
p310
s.