ccollections
defaultdict
p0
(c__builtin__
list
p1
tp2
Rp3
cnumpy.core.multiarray
scalar
p4
(cnumpy
dtype
p5
(S'i8'
p6
I0
I1
tp7
Rp8
(I3
S'<'
p9
NNNI-1
I-1
I0
tp10
bS'\x00\x00\x00\x00\x00\x00\x00\x00'
p11
tp12
Rp13
V0.37097772536, Parmesan, Cheese, Package, Penne, Basil, Pasta, Uncooked, Linguine, Romano1.68800375923
p14
sg4
(g8
S'\x01\x00\x00\x00\x00\x00\x00\x00'
p15
tp16
Rp17
V0.374418874754, Jack, Cheese, Flour, Monterey, Tortillas, Corn, Green, Salsa1.81841129061
p18
sg4
(g8
S'\x02\x00\x00\x00\x00\x00\x00\x00'
p19
tp20
Rp21
V0.533919641064, Vinegar, Cider, Cored, Apple, Sugar, Apples, Honey1.48640169581
p22
sg4
(g8
S'\x03\x00\x00\x00\x00\x00\x00\x00'
p23
tp24
Rp25
V0.324632027031, Pitted, Olives, Cherry, Sea, Tomatoes, G, Flaky, Grape, Fillets1.34620010935
p26
sg4
(g8
S'\x04\x00\x00\x00\x00\x00\x00\x00'
p27
tp28
Rp29
V0.523585600991, Sugar, Brown, Light, Ketchup, Dark, Sauce, Mustard1.26814862606
p30
sg4
(g8
S'\x05\x00\x00\x00\x00\x00\x00\x00'
p31
tp32
Rp33
V0.543767377132, Beef, Lean, Tomato, Sauce, Paste, Cans, Onion, Tomatoes1.26973325294
p34
sg4
(g8
S'\x06\x00\x00\x00\x00\x00\x00\x00'
p35
tp36
Rp37
V0.415135169656, Grain, Long, Rice, Uncooked, Paprika, Smoked, X1.71487635328
p38
sg4
(g8
S'\x07\x00\x00\x00\x00\x00\x00\x00'
p39
tp40
Rp41
V0.364539542561, Unsalted, Butter, Flour, Baking, Purpose, Extract, Vanilla2.24494388793
p42
sg4
(g8
S'\x08\x00\x00\x00\x00\x00\x00\x00'
p43
tp44
Rp45
V0.297976287593, Seeds, Kosher, Greek, Chiles, Cilantro, Jalape, O, Stems1.55425059202
p46
sg4
(g8
S'\t\x00\x00\x00\x00\x00\x00\x00'
p47
tp48
Rp49
V0.388216839069, Frying, Vegetable, Purpose, Flour, Eggs, Egg, Yeast, Warm1.92050900405
p50
sg4
(g8
S'\n\x00\x00\x00\x00\x00\x00\x00'
p51
tp52
Rp53
V0.400247955083, Rinsed, Corn, Beans, Green, Chili, Cans, Tomatoes, Kernel1.30624254972
p54
sg4
(g8
S'\x0b\x00\x00\x00\x00\x00\x00\x00'
p55
tp56
Rp57
V0.363973477512, Sprigs, Rosemary, Sage, Turkey, Thyme, Crosswise, Giblets1.46576705731
p58
sg4
(g8
S'\x0c\x00\x00\x00\x00\x00\x00\x00'
p59
tp60
Rp61
V0.492435832421, Bell, Peppers, Yellow, Onion, Squash, Zucchini, Tomatoes, Stewed1.31617824167
p62
sg4
(g8
S'\r\x00\x00\x00\x00\x00\x00\x00'
p63
tp64
Rp65
V0.498778163335, Crumbs, Bread, Egg, Seasoned, Eggs, Parmesan, Italian, Cheese1.70217072064
p66
sg4
(g8
S'\x0e\x00\x00\x00\x00\x00\x00\x00'
p67
tp68
Rp69
V0.394792214624, Parsley, Thyme, Basil, Rosemary, Wine, Tomato, Celery, Oregano, Olives1.15602173464
p70
sg4
(g8
S'\x0f\x00\x00\x00\x00\x00\x00\x00'
p71
tp72
Rp73
V0.312032853147, Seasoning, Mix, Blend, Taco, Cheese, Mexican, Salsa1.76074531826
p74
sg4
(g8
S'\x10\x00\x00\x00\x00\x00\x00\x00'
p75
tp76
Rp77
V0.484031139929, Juice, Lemon, Zest, Parsley, Sugar, Wine1.40390243902
p78
sg4
(g8
S'\x11\x00\x00\x00\x00\x00\x00\x00'
p79
tp80
Rp81
V0.416648144032, Roast, Chuck, Whipping, Cream, Heavy, Beef, Steaks, Rib1.33899782135
p82
sg4
(g8
S'\x12\x00\x00\x00\x00\x00\x00\x00'
p83
tp84
Rp85
V0.530328238189, Sour, Cream, Egg, Package, Noodles, Mushrooms, Container1.31327054319
p86
sg4
(g8
S'\x13\x00\x00\x00\x00\x00\x00\x00'
p87
tp88
Rp89
V0.338527822702, Jar, Roasted, Tofu, Firm, Hearts, Noodles, Artichoke1.29262187935
p90
sg4
(g8
S'\x14\x00\x00\x00\x00\x00\x00\x00'
p91
tp92
Rp93
V0.321174409693, Cream, Cheese, Cooked, Chicken, Ham, Meat, Softened1.12731596256
p94
sg4
(g8
S'\x15\x00\x00\x00\x00\x00\x00\x00'
p95
tp96
Rp97
V0.334717355065, Pork, Sweet, Onion, Tenderloin, Sausage, Onions, Potato, Potatoes, Granny, Smith1.41923352633
p98
sg4
(g8
S'\x16\x00\x00\x00\x00\x00\x00\x00'
p99
tp100
Rp101
V0.447759762313, Dressing, Italian, Salad, Style, Grams, Goat, Ranch, Mix1.61341518462
p102
sg4
(g8
S'\x17\x00\x00\x00\x00\x00\x00\x00'
p103
tp104
Rp105
V0.43621085342, Spray, Cooking, Free, Fat, Oats, Vegetable, Egg, Milk1.23955701717
p106
sg4
(g8
S'\x18\x00\x00\x00\x00\x00\x00\x00'
p107
tp108
Rp109
V0.771660636257, Breast, Chicken, Boneless, Skinless, Halves, Pounded1.5743057496
p110
sg4
(g8
S'\x19\x00\x00\x00\x00\x00\x00\x00'
p111
tp112
Rp113
V0.311099311725, Seeds, Coriander, Ginger, Turmeric, Cinnamon, Cilantro, Curry, Vegetable, Cayenne2.00159139539
p114
sg4
(g8
S'\x1a\x00\x00\x00\x00\x00\x00\x00'
p115
tp116
Rp117
V0.383098192168, Cabbage, Head, Flakes, Seasoning, Carrots, Spinach, Baby, Asparagus1.16863520249
p118
sg4
(g8
S'\x1b\x00\x00\x00\x00\x00\x00\x00'
p119
tp120
Rp121
V0.396252682356, Parmesan, Mozzarella, Cheese, Package, Spaghetti, Ricotta, Jar2.18632846125
p122
sg4
(g8
S'\x1c\x00\x00\x00\x00\x00\x00\x00'
p123
tp124
Rp125
V0.517929396326, Purpose, Flour, Milk, Butter, Mushrooms, Cold, Vegetable, Onion1.37638189914
p126
sg4
(g8
S'\x1d\x00\x00\x00\x00\x00\x00\x00'
p127
tp128
Rp129
V0.503527903465, Green, Bell, Onion, Strips, Yellow1.15124871001
p130
sg4
(g8
S'\x1e\x00\x00\x00\x00\x00\x00\x00'
p131
tp132
Rp133
V0.315665750696, Juice, Orange, Zest, Whites, Egg, Sugar, Honey, Peel1.88204346169
p134
sg4
(g8
S'\x1f\x00\x00\x00\x00\x00\x00\x00'
p135
tp136
Rp137
V0.251720638398, Kosher, Freshly, Stems, Salt, Blue, Smoked, Greens, Cheese, Seeds1.31473351883
p138
sg4
(g8
S' \x00\x00\x00\x00\x00\x00\x00'
p139
tp140
Rp141
V0.410035558158, Seasoning, Mushrooms, Mozzarella, Italian, Cheese, Parmesan, Package, Crust1.41697319389
p142
sg4
(g8
S'!\x00\x00\x00\x00\x00\x00\x00'
p143
tp144
Rp145
V0.36140079031, Uncooked, Rinsed, Brown, Rice, Vegetable, Hot, Paste, Instant1.18707692308
p146
sg4
(g8
S'"\x00\x00\x00\x00\x00\x00\x00'
p147
tp148
Rp149
V0.520912554155, Broth, Chicken, Vegetable, Mushrooms, Low, Thyme, Cornstarch1.07777003484
p150
sg4
(g8
S'#\x00\x00\x00\x00\x00\x00\x00'
p151
tp152
Rp153
V0.355104529805, Potatoes, Bay, Leaf, Carrots, Chunks, Onions, Sprig, Thyme, Gold1.40929208225
p154
sg4
(g8
S'$\x00\x00\x00\x00\x00\x00\x00'
p155
tp156
Rp157
V0.49259455408, Cheddar, Cheese, Sharp, Package, Milk, Rotini, Pasta, Bacon1.04807707748
p158
sg4
(g8
S'%\x00\x00\x00\x00\x00\x00\x00'
p159
tp160
Rp161
V0.435117867755, Onions, Green, Onion, Sesame, Seeds, Sugar, Vegetable, English1.21686075607
p162
sg4
(g8
S'&\x00\x00\x00\x00\x00\x00\x00'
p163
tp164
Rp165
V0.275799497758, Swiss, Cheese, Mayonnaise, Softened, Butter, Provolone, Slice, Loaf1.5101354252
p166
sg4
(g8
S"'\x00\x00\x00\x00\x00\x00\x00"
p167
tp168
Rp169
V0.280299769297, Italian, Sausage, Links, Smoked, Yolk, Egg, Hot, Button, Sweet1.15651456088
p170
sg4
(g8
S'(\x00\x00\x00\x00\x00\x00\x00'
p171
tp172
Rp173
V0.56626509155, Low, Fat, Reduced, Sodium, Chicken, Soy0.888552754435
p174
sg4
(g8
S')\x00\x00\x00\x00\x00\x00\x00'
p175
tp176
Rp177
V0.362975710814, Broccoli, Florets, Vegetable, Cauliflower, Head, Mushrooms, Wide, Carrot1.18038850039
p178
sg4
(g8
S'*\x00\x00\x00\x00\x00\x00\x00'
p179
tp180
Rp181
V0.193691134795, Cooked, Optional, Wheat, Quality, Hard, Salted, Good, Slightly, Use1.27099116662
p182
sg4
(g8
S'+\x00\x00\x00\x00\x00\x00\x00'
p183
tp184
Rp185
V0.371615918211, Fluid, Potatoes, Beer, Bottle, Chicken, Bouillon, Beef, Vegetable, Cube1.34434080491
p186
sg4
(g8
S',\x00\x00\x00\x00\x00\x00\x00'
p187
tp188
Rp189
V0.476619106101, Leaf, Unsalted, Flat, Butter, Parsley, Kosher, Wine, Parmigiano1.72791068581
p190
sg4
(g8
S'-\x00\x00\x00\x00\x00\x00\x00'
p191
tp192
Rp193
V0.351304116356, Basil, Oregano, Plum, Tomatoes, Sun, Roma, Onion1.19990030767
p194
sg4
(g8
S'.\x00\x00\x00\x00\x00\x00\x00'
p195
tp196
Rp197
V0.346734477341, Soy, Sauce, Sesame, Ginger, Rice, Vinegar, Root, Sugar, Vegetable1.84233100233
p198
sg4
(g8
S'/\x00\x00\x00\x00\x00\x00\x00'
p199
tp200
Rp201
V0.351323901139, Stalks, Celery, Meat, Carrots, Seeds, Crackers, Round, Onion, Stew1.14234654235
p202
sg4
(g8
S'0\x00\x00\x00\x00\x00\x00\x00'
p203
tp204
Rp205
V0.487427088866, Package, Spinach, Thawed, Frozen, Feta, Cheese, Seasoning1.50159220967
p206
sg4
(g8
S'1\x00\x00\x00\x00\x00\x00\x00'
p207
tp208
Rp209
V0.428107394481, Dijon, Mustard, Prepared, Honey, Horseradish, Mayonnaise, Style1.20607196083
p210
sg4
(g8
S'2\x00\x00\x00\x00\x00\x00\x00'
p211
tp212
Rp213
V0.288854407451, Syrup, Nutmeg, Maple, Raisins, Golden, Pure, Allspice, Unsalted1.65141300647
p214
sg4
(g8
S'3\x00\x00\x00\x00\x00\x00\x00'
p215
tp216
Rp217
V0.440772663386, Virgin, Extra, Sea, Basil, Crosswise, Onion, Additional, Ears, Corn1.25881394342
p218
sg4
(g8
S'4\x00\x00\x00\x00\x00\x00\x00'
p219
tp220
Rp221
V0.370640074382, Soy, Sauce, Chunks, Peanut, Pineapple, Cornstarch, Honey, Ginger, Butter, Vegetable1.18468086448
p222
sg4
(g8
S'5\x00\x00\x00\x00\x00\x00\x00'
p223
tp224
Rp225
V0.386384243308, Lime, Juice, Lemon, Nuts, Pine, Mint, Zest1.63286438082
p226
sg4
(g8
S'6\x00\x00\x00\x00\x00\x00\x00'
p227
tp228
Rp229
V0.333079033322, Buns, Hamburger, Mustard, Yellow, Prepared, Split, Rolls1.61381646908
p230
sg4
(g8
S'7\x00\x00\x00\x00\x00\x00\x00'
p231
tp232
Rp233
V0.427729925902, Wine, Vinegar, Balsamic, Sherry, Steaks, Shallot, Portobello1.39798293008
p234
sg4
(g8
S'8\x00\x00\x00\x00\x00\x00\x00'
p235
tp236
Rp237
V0.366960107023, Deveined, Shrimp, Seasoning, Wine, Cajun, Scallops, Angel, Hair, Pasta1.36981132075
p238
sg4
(g8
S'9\x00\x00\x00\x00\x00\x00\x00'
p239
tp240
Rp241
V0.363342271063, Melted, Butter, Cheese, Optional, Bacon, Tenderloins, Flakes, Needed, Onion0.819803489282
p242
sg4
(g8
S':\x00\x00\x00\x00\x00\x00\x00'
p243
tp244
Rp245
V0.305193941731, Soup, Condensed, Potatoes, Cheddar, Cheese, Package, Tomato, Mashed, Frozen1.5368838318
p246
sg4
(g8
S';\x00\x00\x00\x00\x00\x00\x00'
p247
tp248
Rp249
V0.277729044635, Wine, Beef, Broth, Adobo, Chipotle, Mushrooms, Brisket, Sauce1.46723528905
p250
sg4
(g8
S'<\x00\x00\x00\x00\x00\x00\x00'
p251
tp252
Rp253
V0.357664961907, Milk, Curry, Coconut, Fish, Sauce, Paste, Ginger, Rice, Thai1.5064091214
p254
sg4
(g8
S'=\x00\x00\x00\x00\x00\x00\x00'
p255
tp256
Rp257
V0.405615187288, Milk, Elbow, Margarine, Macaroni, American, Cheese, Processed, Teriyaki, Sauce1.42424242424
p258
sg4
(g8
S'>\x00\x00\x00\x00\x00\x00\x00'
p259
tp260
Rp261
V0.511907158535, Heavy, Cream, Egg, Yolks, Milk, Bacon, Nutmeg, Parmesan1.40781025924
p262
sg4
(g8
S'?\x00\x00\x00\x00\x00\x00\x00'
p263
tp264
Rp265
V0.668605991828, Skinless, Boneless, Breast, Chicken, Halves, Breasts1.45434226058
p266
sg4
(g8
S'@\x00\x00\x00\x00\x00\x00\x00'
p267
tp268
Rp269
V0.462919673471, Chops, Boneless, Pork, Loin, Roast, Shoulder1.38126841652
p270
sg4
(g8
S'A\x00\x00\x00\x00\x00\x00\x00'
p271
tp272
Rp273
V0.366591539909, Peas, Thawed, Package, Frozen, Green, Egg, Pastry1.41404468764
p274
sg4
(g8
S'B\x00\x00\x00\x00\x00\x00\x00'
p275
tp276
Rp277
V0.197432013385, Vanilla, Chocolate, Vegetable, Extract, Milk, Unsweetened, Syrup, Light1.93969865186
p278
sg4
(g8
S'C\x00\x00\x00\x00\x00\x00\x00'
p279
tp280
Rp281
V0.433344463049, Peppers, Chile, Green, Mix, Tomatoes, Stuffing1.89549538334
p282
sg4
(g8
S'D\x00\x00\x00\x00\x00\x00\x00'
p283
tp284
Rp285
V0.415056503554, Worcestershire, Sauce, Beef, Steak, Barbeque, Sirloin, Ketchup, Seasoning, Pork1.50575275398
p286
sg4
(g8
S'E\x00\x00\x00\x00\x00\x00\x00'
p287
tp288
Rp289
V0.331140661724, Lemon, Salmon, Juiced, Dill, Fillets, Mayonnaise, Fillet, Seasoning1.51119503829
p290
sg4
(g8
S'F\x00\x00\x00\x00\x00\x00\x00'
p291
tp292
Rp293
V0.383742577192, Hot, Sauce, Worcestershire, Fennel, Vinegar, Dash, Distilled, Liquid1.6678945697
p294
sg4
(g8
S'G\x00\x00\x00\x00\x00\x00\x00'
p295
tp296
Rp297
V0.37124590761, Paprika, Celery, Cumin, Needed, Stalk, Carrot, Chili, Slivered1.07157810226
p298
sg4
(g8
S'H\x00\x00\x00\x00\x00\x00\x00'
p299
tp300
Rp301
V0.323981015736, Lime, Jalapeno, Chile, Cumin, Peppers, Juice, Juiced1.42650213574
p302
sg4
(g8
S'I\x00\x00\x00\x00\x00\x00\x00'
p303
tp304
Rp305
V0.494628577312, Cream, Condensed, Mushroom, Soup, Mix, Chicken, Onion1.86687353997
p306
sg4
(g8
S'J\x00\x00\x00\x00\x00\x00\x00'
p307
tp308
Rp309
V0.406982708243, Stock, Chicken, Thighs, Bone, Skin, Needed, Drumsticks1.24537264537
p310
s.